target datalayout = "e-m:e-p270:32:32-p271:32:32-p272:64:64-i64:64-i128:128-f80:128-n8:16:32:64-S128"
target triple = "x86_64-unknown-linux-gnu"

%"class.std::__shared_count" = type { ptr }
%"class.facebook::velox::BaseVector.base" = type <{ ptr, %"class.std::shared_ptr.0", i8, [3 x i8], i32, %"class.boost::intrusive_ptr", ptr, ptr, i32, %"class.std::optional", %"class.std::optional", %"class.std::optional", %"class.std::optional", i32, i8, i8, i8 }>
%"class.std::shared_ptr.0" = type { %"class.std::__shared_ptr.1" }
%"class.std::__shared_ptr.1" = type { ptr, %"class.std::__shared_count" }
%"class.boost::intrusive_ptr" = type { ptr }
%"class.std::optional" = type { %"struct.std::_Optional_base" }
%"struct.std::_Optional_base" = type { %"struct.std::_Optional_payload" }
%"struct.std::_Optional_payload" = type { %"struct.std::_Optional_payload_base.base", [3 x i8] }
%"struct.std::_Optional_payload_base.base" = type <{ %"union.std::_Optional_payload_base<int>::_Storage", i8 }>
%"union.std::_Optional_payload_base<int>::_Storage" = type { i32 }
%"class.facebook::velox::BaseVector" = type <{ ptr, %"class.std::shared_ptr.0", i8, [3 x i8], i32, %"class.boost::intrusive_ptr", ptr, ptr, i32, %"class.std::optional", %"class.std::optional", %"class.std::optional", %"class.std::optional", i32, i8, i8, i8, [5 x i8] }>
%"class.facebook::velox::Buffer" = type { ptr, ptr, ptr, i64, i64, %"struct.std::atomic", i8, [2 x i64] }
%"struct.std::atomic" = type { %"struct.std::__atomic_base" }
%"struct.std::__atomic_base" = type { i32 }
%"struct.facebook::velox::ArrayVectorBase" = type { %"class.facebook::velox::BaseVector.base", %"class.boost::intrusive_ptr", ptr, %"class.boost::intrusive_ptr", ptr }

; Function Attrs: mustprogress nounwind uwtable
define linkonce_odr noundef zeroext i1 @_ZN8facebook5velox4bits8isBitSetImEEbPKT_i(ptr noundef %bits, i32 noundef %idx) #3 comdat {
entry:
  %bits.addr = alloca ptr, align 8
  %idx.addr = alloca i32, align 4
  store ptr %bits, ptr %bits.addr, align 8
  store i32 %idx, ptr %idx.addr, align 4
  %0 = load ptr, ptr %bits.addr, align 8
  %1 = load i32, ptr %idx.addr, align 4
  %conv = sext i32 %1 to i64
  %div = udiv i64 %conv, 64
  %arrayidx = getelementptr inbounds i64, ptr %0, i64 %div
  %2 = load i64, ptr %arrayidx, align 8
  %3 = load i32, ptr %idx.addr, align 4
  %conv1 = sext i32 %3 to i64
  %and = and i64 %conv1, 63
  %shl = shl i64 1, %and
  %and2 = and i64 %2, %shl
  %tobool = icmp ne i64 %and2, 0
  ret i1 %tobool
}

; Function Attrs: mustprogress uwtable
define linkonce_odr noundef zeroext i1 @_ZN8facebook5velox4bits9isBitNullEPKmi(ptr noundef %bits, i32 noundef %index) #0 comdat {
entry:
  %bits.addr = alloca ptr, align 8
  %index.addr = alloca i32, align 4
  store ptr %bits, ptr %bits.addr, align 8
  store i32 %index, ptr %index.addr, align 4
  %0 = load ptr, ptr %bits.addr, align 8
  %1 = load i32, ptr %index.addr, align 4
  %call = call noundef zeroext i1 @_ZN8facebook5velox4bits8isBitSetImEEbPKT_i(ptr noundef %0, i32 noundef %1)
  %conv = zext i1 %call to i32
  %cmp = icmp eq i32 %conv, 0
  ret i1 %cmp
}

; Function Attrs: mustprogress nounwind uwtable
define linkonce_odr noundef i64 @_ZNK8facebook5velox6Buffer4sizeEv(ptr noundef nonnull align 8 dereferenceable(64) %this) #3 comdat align 2 {
entry:
  %this.addr = alloca ptr, align 8
  store ptr %this, ptr %this.addr, align 8
  %this1 = load ptr, ptr %this.addr, align 8
  %size_ = getelementptr inbounds %"class.facebook::velox::Buffer", ptr %this1, i32 0, i32 3
  %0 = load i64, ptr %size_, align 8
  ret i64 %0
}

; Function Attrs: mustprogress nounwind uwtable
define linkonce_odr noundef ptr @_ZNK5boost13intrusive_ptrIN8facebook5velox6BufferEEptEv(ptr noundef nonnull align 8 dereferenceable(8) %this) #3 comdat align 2 {
entry:
  %this.addr = alloca ptr, align 8
  store ptr %this, ptr %this.addr, align 8
  %this1 = load ptr, ptr %this.addr, align 8
  %px = getelementptr inbounds %"class.boost::intrusive_ptr", ptr %this1, i32 0, i32 0
  %0 = load ptr, ptr %px, align 8
  ret ptr %0
}

; Function Attrs: mustprogress nounwind uwtable
define linkonce_odr noundef i64 @_ZN8facebook5velox10BaseVector8byteSizeIiEEmi(i32 noundef %count) #3 comdat align 2 {
entry:
  %count.addr = alloca i32, align 4
  store i32 %count, ptr %count.addr, align 4
  %0 = load i32, ptr %count.addr, align 4
  %conv = sext i32 %0 to i64
  %mul = mul i64 4, %conv
  ret i64 %mul
}

; Function Attrs: mustprogress uwtable
define void @_ZNK8facebook5velox15ArrayVectorBase23validateArrayVectorBaseERKNS0_21VectorValidateOptionsEi(ptr noundef nonnull align 8 dereferenceable(136) %this, ptr noundef nonnull align 8 dereferenceable(40) %options, i32 noundef %minChildVectorSize) #0 align 2 {
entry:
  %this.addr = alloca ptr, align 8
  %options.addr = alloca ptr, align 8
  %minChildVectorSize.addr = alloca i32, align 4
  %bufferByteSize = alloca i64, align 8
  %i = alloca i32, align 4
  %isNull = alloca i8, align 1
  store ptr %this, ptr %this.addr, align 8
  store ptr %options, ptr %options.addr, align 8
  store i32 %minChildVectorSize, ptr %minChildVectorSize.addr, align 4
  %this1 = load ptr, ptr %this.addr, align 8
  %0 = load ptr, ptr %options.addr, align 8
  call void @_ZNK8facebook5velox10BaseVector8validateERKNS0_21VectorValidateOptionsE(ptr noundef nonnull align 8 dereferenceable(99) %this1, ptr noundef nonnull align 8 dereferenceable(40) %0)
  %length_ = getelementptr inbounds %"class.facebook::velox::BaseVector", ptr %this1, i32 0, i32 8
  %1 = load i32, ptr %length_, align 8
  %call = call noundef i64 @_ZN8facebook5velox10BaseVector8byteSizeIiEEmi(i32 noundef %1)
  store i64 %call, ptr %bufferByteSize, align 8
  %sizes_ = getelementptr inbounds %"struct.facebook::velox::ArrayVectorBase", ptr %this1, i32 0, i32 3
  %call2 = call noundef ptr @_ZNK5boost13intrusive_ptrIN8facebook5velox6BufferEEptEv(ptr noundef nonnull align 8 dereferenceable(8) %sizes_) #18
  %call3 = call noundef i64 @_ZNK8facebook5velox6Buffer4sizeEv(ptr noundef nonnull align 8 dereferenceable(64) %call2)
  %2 = load i64, ptr %bufferByteSize, align 8
  %cmp = icmp uge i64 %call3, %2
  %lnot = xor i1 %cmp, true
  br i1 %lnot, label %if.then, label %if.end

if.then:                                          ; preds = %entry
  call void @llvm.trap()
  br label %if.end

if.end:                                           ; preds = %if.then, %entry
  %offsets_ = getelementptr inbounds %"struct.facebook::velox::ArrayVectorBase", ptr %this1, i32 0, i32 1
  %call4 = call noundef ptr @_ZNK5boost13intrusive_ptrIN8facebook5velox6BufferEEptEv(ptr noundef nonnull align 8 dereferenceable(8) %offsets_) #18
  %call5 = call noundef i64 @_ZNK8facebook5velox6Buffer4sizeEv(ptr noundef nonnull align 8 dereferenceable(64) %call4)
  %3 = load i64, ptr %bufferByteSize, align 8
  %cmp6 = icmp uge i64 %call5, %3
  %lnot7 = xor i1 %cmp6, true
  br i1 %lnot7, label %if.then8, label %if.end9

if.then8:                                         ; preds = %if.end
  call void @llvm.trap()
  br label %if.end9

if.end9:                                          ; preds = %if.then8, %if.end
  store i32 0, ptr %i, align 4
  br label %for.cond

for.cond:                                         ; preds = %for.inc, %if.end9
  %4 = load i32, ptr %i, align 4
  %length_10 = getelementptr inbounds %"class.facebook::velox::BaseVector", ptr %this1, i32 0, i32 8
  %5 = load i32, ptr %length_10, align 8
  %cmp11 = icmp slt i32 %4, %5
  br i1 %cmp11, label %for.body, label %for.end

for.body:                                         ; preds = %for.cond
  %rawNulls_ = getelementptr inbounds %"class.facebook::velox::BaseVector", ptr %this1, i32 0, i32 6
  %6 = load ptr, ptr %rawNulls_, align 8
  %tobool = icmp ne ptr %6, null
  br i1 %tobool, label %land.rhs, label %land.end

land.rhs:                                         ; preds = %for.body
  %rawNulls_12 = getelementptr inbounds %"class.facebook::velox::BaseVector", ptr %this1, i32 0, i32 6
  %7 = load ptr, ptr %rawNulls_12, align 8
  %8 = load i32, ptr %i, align 4
  %call13 = call noundef zeroext i1 @_ZN8facebook5velox4bits9isBitNullEPKmi(ptr noundef %7, i32 noundef %8)
  br label %land.end

land.end:                                         ; preds = %land.rhs, %for.body
  %9 = phi i1 [ false, %for.body ], [ %call13, %land.rhs ]
  %frombool = zext i1 %9 to i8
  store i8 %frombool, ptr %isNull, align 1
  %10 = load i8, ptr %isNull, align 1
  %tobool14 = trunc i8 %10 to i1
  br i1 %tobool14, label %if.then16, label %lor.lhs.false

lor.lhs.false:                                    ; preds = %land.end
  %rawSizes_ = getelementptr inbounds %"struct.facebook::velox::ArrayVectorBase", ptr %this1, i32 0, i32 4
  %11 = load ptr, ptr %rawSizes_, align 8
  %12 = load i32, ptr %i, align 4
  %idxprom = sext i32 %12 to i64
  %arrayidx = getelementptr inbounds i32, ptr %11, i64 %idxprom
  %13 = load i32, ptr %arrayidx, align 4
  %cmp15 = icmp eq i32 %13, 0
  br i1 %cmp15, label %if.then16, label %if.end17

if.then16:                                        ; preds = %lor.lhs.false, %land.end
  br label %for.inc

if.end17:                                         ; preds = %lor.lhs.false
  %rawSizes_18 = getelementptr inbounds %"struct.facebook::velox::ArrayVectorBase", ptr %this1, i32 0, i32 4
  %14 = load ptr, ptr %rawSizes_18, align 8
  %15 = load i32, ptr %i, align 4
  %idxprom19 = sext i32 %15 to i64
  %arrayidx20 = getelementptr inbounds i32, ptr %14, i64 %idxprom19
  %16 = load i32, ptr %arrayidx20, align 4
  %cmp21 = icmp sge i32 %16, 0
  %lnot22 = xor i1 %cmp21, true
  br i1 %lnot22, label %if.then23, label %if.end24

if.then23:                                        ; preds = %if.end17
  call void @llvm.trap()
  br label %if.end24

if.end24:                                         ; preds = %if.then23, %if.end17
  %rawOffsets_ = getelementptr inbounds %"struct.facebook::velox::ArrayVectorBase", ptr %this1, i32 0, i32 2
  %17 = load ptr, ptr %rawOffsets_, align 8
  %18 = load i32, ptr %i, align 4
  %idxprom25 = sext i32 %18 to i64
  %arrayidx26 = getelementptr inbounds i32, ptr %17, i64 %idxprom25
  %19 = load i32, ptr %arrayidx26, align 4
  %cmp27 = icmp sge i32 %19, 0
  %lnot28 = xor i1 %cmp27, true
  br i1 %lnot28, label %if.then29, label %if.end30

if.then29:                                        ; preds = %if.end24
  call void @llvm.trap()
  br label %if.end30

if.end30:                                         ; preds = %if.then29, %if.end24
  %rawOffsets_31 = getelementptr inbounds %"struct.facebook::velox::ArrayVectorBase", ptr %this1, i32 0, i32 2
  %20 = load ptr, ptr %rawOffsets_31, align 8
  %21 = load i32, ptr %i, align 4
  %idxprom32 = sext i32 %21 to i64
  %arrayidx33 = getelementptr inbounds i32, ptr %20, i64 %idxprom32
  %22 = load i32, ptr %arrayidx33, align 4
  %rawSizes_34 = getelementptr inbounds %"struct.facebook::velox::ArrayVectorBase", ptr %this1, i32 0, i32 4
  %23 = load ptr, ptr %rawSizes_34, align 8
  %24 = load i32, ptr %i, align 4
  %idxprom35 = sext i32 %24 to i64
  %arrayidx36 = getelementptr inbounds i32, ptr %23, i64 %idxprom35
  %25 = load i32, ptr %arrayidx36, align 4
  %add = add nsw i32 %22, %25
  %sub = sub nsw i32 %add, 1
  %26 = load i32, ptr %minChildVectorSize.addr, align 4
  %cmp37 = icmp slt i32 %sub, %26
  %lnot38 = xor i1 %cmp37, true
  br i1 %lnot38, label %if.then39, label %if.end40

if.then39:                                        ; preds = %if.end30
  call void @llvm.trap()
  br label %if.end40

if.end40:                                         ; preds = %if.then39, %if.end30
  br label %for.inc

for.inc:                                          ; preds = %if.end40, %if.then16
  %27 = load i32, ptr %i, align 4
  %inc = add nsw i32 %27, 1
  store i32 %inc, ptr %i, align 4
  br label %for.cond, !llvm.loop !30

for.end:                                          ; preds = %for.cond
  ret void
}