; Function Attrs: mustprogress uwtable
define void @_ZNK8facebook5velox15ArrayVectorBase23validateArrayVectorBaseERKNS0_21VectorValidateOptionsEi(ptr noundef nonnull align 8 dereferenceable(136) %this, ptr noundef nonnull align 8 dereferenceable(40) %options, i32 noundef %minChildVectorSize) local_unnamed_addr #0 align 2 {
entry:
  tail call void @_ZNK8facebook5velox10BaseVector8validateERKNS0_21VectorValidateOptionsE(ptr noundef nonnull align 8 dereferenceable(99) %this, ptr noundef nonnull align 8 dereferenceable(40) %options)
  %length_ = getelementptr inbounds i8, ptr %this, i64 56
  %0 = load i32, ptr %length_, align 8
  %conv.i = sext i32 %0 to i64
  %mul.i = shl nsw i64 %conv.i, 2
  %sizes_ = getelementptr inbounds i8, ptr %this, i64 120
  %1 = load ptr, ptr %sizes_, align 8
  %size_.i = getelementptr inbounds i8, ptr %1, i64 24
  %2 = load i64, ptr %size_.i, align 8
  %cmp.not = icmp ult i64 %2, %mul.i
  br i1 %cmp.not, label %if.then, label %if.end

if.then:                                          ; preds = %entry
  tail call void @llvm.trap()
  unreachable

if.end:                                           ; preds = %entry
  %offsets_ = getelementptr inbounds i8, ptr %this, i64 104
  %3 = load ptr, ptr %offsets_, align 8
  %size_.i10 = getelementptr inbounds i8, ptr %3, i64 24
  %4 = load i64, ptr %size_.i10, align 8
  %cmp6.not = icmp ult i64 %4, %mul.i
  br i1 %cmp6.not, label %if.then8, label %for.cond.preheader

for.cond.preheader:                               ; preds = %if.end
  %cmp1111 = icmp sgt i32 %0, 0
  br i1 %cmp1111, label %for.body.lr.ph, label %for.end

for.body.lr.ph:                                   ; preds = %for.cond.preheader
  %rawNulls_ = getelementptr inbounds i8, ptr %this, i64 40
  %5 = load ptr, ptr %rawNulls_, align 8
  %tobool.not = icmp eq ptr %5, null
  %rawSizes_ = getelementptr inbounds i8, ptr %this, i64 128
  %6 = load ptr, ptr %rawSizes_, align 8
  %rawOffsets_ = getelementptr inbounds i8, ptr %this, i64 112
  %7 = load ptr, ptr %rawOffsets_, align 8
  %wide.trip.count21 = zext nneg i32 %0 to i64
  br i1 %tobool.not, label %for.body.us, label %for.body

for.body.us:                                      ; preds = %for.body.lr.ph, %for.inc.us
  %indvars.iv18 = phi i64 [ %indvars.iv.next19, %for.inc.us ], [ 0, %for.body.lr.ph ]
  %arrayidx.us = getelementptr inbounds i32, ptr %6, i64 %indvars.iv18
  %8 = load i32, ptr %arrayidx.us, align 4
  %cmp15.us = icmp eq i32 %8, 0
  br i1 %cmp15.us, label %for.inc.us, label %if.end17.us

if.end17.us:                                      ; preds = %for.body.us
  %cmp21.us = icmp slt i32 %8, 0
  br i1 %cmp21.us, label %if.then23, label %if.end24.us

if.end24.us:                                      ; preds = %if.end17.us
  %arrayidx26.us = getelementptr inbounds i32, ptr %7, i64 %indvars.iv18
  %9 = load i32, ptr %arrayidx26.us, align 4
  %cmp27.us = icmp slt i32 %9, 0
  br i1 %cmp27.us, label %if.then29, label %if.end30.us

if.end30.us:                                      ; preds = %if.end24.us
  %add.us = add nuw nsw i32 %9, %8
  %cmp37.not.us = icmp sgt i32 %add.us, %minChildVectorSize
  br i1 %cmp37.not.us, label %if.then39, label %for.inc.us

for.inc.us:                                       ; preds = %if.end30.us, %for.body.us
  %indvars.iv.next19 = add nuw nsw i64 %indvars.iv18, 1
  %exitcond22.not = icmp eq i64 %indvars.iv.next19, %wide.trip.count21
  br i1 %exitcond22.not, label %for.end, label %for.body.us, !llvm.loop !74

if.then8:                                         ; preds = %if.end
  tail call void @llvm.trap()
  unreachable

for.body:                                         ; preds = %for.body.lr.ph, %for.inc
  %indvars.iv = phi i64 [ %indvars.iv.next, %for.inc ], [ 0, %for.body.lr.ph ]
  %div2.i.i = lshr i64 %indvars.iv, 6
  %arrayidx.i.i = getelementptr inbounds i64, ptr %5, i64 %div2.i.i
  %10 = load i64, ptr %arrayidx.i.i, align 8
  %and.i.i = and i64 %indvars.iv, 63
  %shl.i.i = shl nuw i64 1, %and.i.i
  %and2.i.i = and i64 %10, %shl.i.i
  %tobool.i.not.i = icmp eq i64 %and2.i.i, 0
  br i1 %tobool.i.not.i, label %for.inc, label %lor.lhs.false

lor.lhs.false:                                    ; preds = %for.body
  %arrayidx = getelementptr inbounds i32, ptr %6, i64 %indvars.iv
  %11 = load i32, ptr %arrayidx, align 4
  %cmp15 = icmp eq i32 %11, 0
  br i1 %cmp15, label %for.inc, label %if.end17

if.end17:                                         ; preds = %lor.lhs.false
  %cmp21 = icmp slt i32 %11, 0
  br i1 %cmp21, label %if.then23, label %if.end24

if.then23:                                        ; preds = %if.end17, %if.end17.us
  tail call void @llvm.trap()
  unreachable

if.end24:                                         ; preds = %if.end17
  %arrayidx26 = getelementptr inbounds i32, ptr %7, i64 %indvars.iv
  %12 = load i32, ptr %arrayidx26, align 4
  %cmp27 = icmp slt i32 %12, 0
  br i1 %cmp27, label %if.then29, label %if.end30

if.then29:                                        ; preds = %if.end24, %if.end24.us
  tail call void @llvm.trap()
  unreachable

if.end30:                                         ; preds = %if.end24
  %add = add nuw nsw i32 %12, %11
  %cmp37.not = icmp sgt i32 %add, %minChildVectorSize
  br i1 %cmp37.not, label %if.then39, label %for.inc

if.then39:                                        ; preds = %if.end30, %if.end30.us
  tail call void @llvm.trap()
  unreachable

for.inc:                                          ; preds = %if.end30, %for.body, %lor.lhs.false
  %indvars.iv.next = add nuw nsw i64 %indvars.iv, 1
  %exitcond.not = icmp eq i64 %indvars.iv.next, %wide.trip.count21
  br i1 %exitcond.not, label %for.end, label %for.body, !llvm.loop !74

for.end:                                          ; preds = %for.inc, %for.inc.us, %for.cond.preheader
  ret void
}